target datalayout = "e-m:e-p270:32:32-p271:32:32-p272:64:64-i64:64-i128:128-f80:128-n8:16:32:64-S128"
target triple = "x86_64-pc-linux-gnu"

%struct.expert_field = type { i32, i32 }
%struct._packet_info = type { ptr, ptr, i32, i32, %struct.nstime_t, %struct.nstime_t, %struct.nstime_t, i8, ptr, ptr, ptr, ptr, %struct._address, %struct._address, %struct._address, %struct._address, %struct._address, %struct._address, i32, ptr, i8, [3 x i8], %struct.anon, i32, i32, i32, i32, ptr, i8, ptr, ptr, i16, i16, i32, i32, i16, i32, i32, ptr, ptr, ptr, i8, i8, i16, i16, i16, i32, i16, i16, ptr, ptr, ptr, ptr, ptr, i32, i32 }
%struct.nstime_t = type { i64, i32 }
%struct._address = type { i32, i32, ptr, ptr }
%struct.anon = type { i8, [3 x i8] }
%struct.e_in6_addr = type { [16 x i8] }
%struct.ws_rthdr = type { %struct.ws_ip6_rthdr, ptr, ptr, ptr }
%struct.ws_ip6_rthdr = type { i8, i8, i8, i8 }

@hf_ipv6_routing_mipv6_reserved = internal global i32 0, align 4
@hf_ipv6_routing_mipv6_home_address = internal global i32 0, align 4
@ei_ipv6_src_route_list_multicast_addr = internal global %struct.expert_field zeroinitializer, align 4
@ei_ipv6_routing_invalid_length = internal global %struct.expert_field zeroinitializer, align 4
@ei_ipv6_routing_invalid_segleft = internal global %struct.expert_field zeroinitializer, align 4
@.str.938 = private unnamed_addr constant [16 x i8] c"Address[%d]: %s\00", align 1
@.str.939 = private unnamed_addr constant [64 x i8] c"IPv6 Type 2 Routing Header extension header length must equal 2\00", align 1
@.str.940 = private unnamed_addr constant [60 x i8] c"IPv6 Type 2 Routing Header segments left field must equal 1\00", align 1

; Function Attrs: inlinehint nounwind null_pointer_is_valid sspstrong uwtable
define internal void @clear_address(ptr noundef %0) #7 {
  %2 = alloca ptr, align 8
  store ptr %0, ptr %2, align 8
  %3 = load ptr, ptr %2, align 8
  %4 = getelementptr inbounds nuw %struct._address, ptr %3, i32 0, i32 0
  store i32 0, ptr %4, align 8
  %5 = load ptr, ptr %2, align 8
  %6 = getelementptr inbounds nuw %struct._address, ptr %5, i32 0, i32 1
  store i32 0, ptr %6, align 4
  %7 = load ptr, ptr %2, align 8
  %8 = getelementptr inbounds nuw %struct._address, ptr %7, i32 0, i32 2
  store ptr null, ptr %8, align 8
  %9 = load ptr, ptr %2, align 8
  %10 = getelementptr inbounds nuw %struct._address, ptr %9, i32 0, i32 3
  store ptr null, ptr %10, align 8
  ret void
}

; Function Attrs: inlinehint nounwind null_pointer_is_valid sspstrong uwtable
define internal void @set_address(ptr noundef %0, i32 noundef %1, i32 noundef %2, ptr noundef %3) #7 {
  %5 = alloca ptr, align 8
  %6 = alloca i32, align 4
  %7 = alloca i32, align 4
  %8 = alloca ptr, align 8
  store ptr %0, ptr %5, align 8
  store i32 %1, ptr %6, align 4
  store i32 %2, ptr %7, align 4
  store ptr %3, ptr %8, align 8
  %9 = load i32, ptr %7, align 4
  %10 = icmp eq i32 %9, 0
  br i1 %10, label %11, label %14

11:                                               ; preds = %4
  br label %12

12:                                               ; preds = %11
  br label %13

13:                                               ; preds = %12
  br label %19

14:                                               ; preds = %4
  br label %15

15:                                               ; preds = %14
  br label %16

16:                                               ; preds = %15
  br label %17

17:                                               ; preds = %16
  br label %18

18:                                               ; preds = %17
  br label %19

19:                                               ; preds = %18, %13
  %20 = load i32, ptr %6, align 4
  %21 = load ptr, ptr %5, align 8
  %22 = getelementptr inbounds nuw %struct._address, ptr %21, i32 0, i32 0
  store i32 %20, ptr %22, align 8
  %23 = load i32, ptr %7, align 4
  %24 = load ptr, ptr %5, align 8
  %25 = getelementptr inbounds nuw %struct._address, ptr %24, i32 0, i32 1
  store i32 %23, ptr %25, align 4
  %26 = load ptr, ptr %8, align 8
  %27 = load ptr, ptr %5, align 8
  %28 = getelementptr inbounds nuw %struct._address, ptr %27, i32 0, i32 2
  store ptr %26, ptr %28, align 8
  %29 = load ptr, ptr %5, align 8
  %30 = getelementptr inbounds nuw %struct._address, ptr %29, i32 0, i32 3
  store ptr null, ptr %30, align 8
  ret void
}

; Function Attrs: inlinehint null_pointer_is_valid sspstrong uwtable
define internal void @alloc_address_wmem(ptr noundef %0, ptr noundef %1, i32 noundef %2, i32 noundef %3, ptr noundef %4) #8 {
  %6 = alloca ptr, align 8
  %7 = alloca ptr, align 8
  %8 = alloca i32, align 4
  %9 = alloca i32, align 4
  %10 = alloca ptr, align 8
  store ptr %0, ptr %6, align 8
  store ptr %1, ptr %7, align 8
  store i32 %2, ptr %8, align 4
  store i32 %3, ptr %9, align 4
  store ptr %4, ptr %10, align 8
  br label %11

11:                                               ; preds = %5
  br label %12

12:                                               ; preds = %11
  %13 = load ptr, ptr %7, align 8
  call void @clear_address(ptr noundef %13)
  %14 = load i32, ptr %8, align 4
  %15 = load ptr, ptr %7, align 8
  %16 = getelementptr inbounds nuw %struct._address, ptr %15, i32 0, i32 0
  store i32 %14, ptr %16, align 8
  %17 = load i32, ptr %9, align 4
  %18 = icmp eq i32 %17, 0
  br i1 %18, label %19, label %22

19:                                               ; preds = %12
  br label %20

20:                                               ; preds = %19
  br label %21

21:                                               ; preds = %20
  br label %39

22:                                               ; preds = %12
  br label %23

23:                                               ; preds = %22
  br label %24

24:                                               ; preds = %23
  br label %25

25:                                               ; preds = %24
  br label %26

26:                                               ; preds = %25
  %27 = load ptr, ptr %6, align 8
  %28 = load ptr, ptr %10, align 8
  %29 = load i32, ptr %9, align 4
  %30 = sext i32 %29 to i64
  %31 = call ptr @wmem_memdup(ptr noundef %27, ptr noundef %28, i64 noundef %30) #20
  %32 = load ptr, ptr %7, align 8
  %33 = getelementptr inbounds nuw %struct._address, ptr %32, i32 0, i32 3
  store ptr %31, ptr %33, align 8
  %34 = load ptr, ptr %7, align 8
  %35 = getelementptr inbounds nuw %struct._address, ptr %34, i32 0, i32 2
  store ptr %31, ptr %35, align 8
  %36 = load i32, ptr %9, align 4
  %37 = load ptr, ptr %7, align 8
  %38 = getelementptr inbounds nuw %struct._address, ptr %37, i32 0, i32 1
  store i32 %36, ptr %38, align 4
  br label %39

39:                                               ; preds = %26, %21
  ret void
}

; Function Attrs: inlinehint nounwind null_pointer_is_valid sspstrong uwtable
define internal zeroext i1 @in6_addr_is_multicast(ptr noundef %0) #7 {
  %2 = alloca ptr, align 8
  store ptr %0, ptr %2, align 8
  %3 = load ptr, ptr %2, align 8
  %4 = getelementptr inbounds nuw %struct.e_in6_addr, ptr %3, i32 0, i32 0
  %5 = getelementptr [16 x i8], ptr %4, i64 0, i64 0
  %6 = load i8, ptr %5, align 1
  %7 = zext i8 %6 to i32
  %8 = icmp eq i32 %7, 255
  ret i1 %8
}

; Function Attrs: null_pointer_is_valid sspstrong uwtable
define internal ptr @_proto_tree_add_ipv6_vector_address(ptr noundef %0, ptr noundef %1, i32 noundef %2, ptr noundef %3, i32 noundef %4, i32 noundef %5, ptr noundef %6, i32 noundef %7) #0 {
  %9 = alloca ptr, align 8
  %10 = alloca ptr, align 8
  %11 = alloca i32, align 4
  %12 = alloca ptr, align 8
  %13 = alloca i32, align 4
  %14 = alloca i32, align 4
  %15 = alloca ptr, align 8
  %16 = alloca i32, align 4
  %17 = alloca %struct._address, align 8
  %18 = alloca ptr, align 8
  store ptr %0, ptr %9, align 8
  store ptr %1, ptr %10, align 8
  store i32 %2, ptr %11, align 4
  store ptr %3, ptr %12, align 8
  store i32 %4, ptr %13, align 4
  store i32 %5, ptr %14, align 4
  store ptr %6, ptr %15, align 8
  store i32 %7, ptr %16, align 4
  call void @llvm.lifetime.start.p0(i64 24, ptr %17) #15
  call void @llvm.lifetime.start.p0(i64 8, ptr %18) #15
  %19 = load ptr, ptr %15, align 8
  call void @set_address(ptr noundef %17, i32 noundef 3, i32 noundef 16, ptr noundef %19)
  %20 = load ptr, ptr %10, align 8
  %21 = getelementptr inbounds nuw %struct._packet_info, ptr %20, i32 0, i32 51
  %22 = load ptr, ptr %21, align 8
  %23 = call ptr @address_with_resolution_to_str(ptr noundef %22, ptr noundef %17)
  store ptr %23, ptr %18, align 8
  %24 = load ptr, ptr %9, align 8
  %25 = load i32, ptr %11, align 4
  %26 = load ptr, ptr %12, align 8
  %27 = load i32, ptr %13, align 4
  %28 = load i32, ptr %14, align 4
  %29 = load ptr, ptr %15, align 8
  %30 = load i32, ptr %16, align 4
  %31 = load ptr, ptr %18, align 8
  %32 = call ptr (ptr, i32, ptr, i32, i32, ptr, ptr, ...) @proto_tree_add_ipv6_format(ptr noundef %24, i32 noundef %25, ptr noundef %26, i32 noundef %27, i32 noundef %28, ptr noundef %29, ptr noundef @.str.938, i32 noundef %30, ptr noundef %31)
  call void @llvm.lifetime.end.p0(i64 8, ptr %18) #15
  call void @llvm.lifetime.end.p0(i64 24, ptr %17) #15
  ret ptr %32
}

; Function Attrs: null_pointer_is_valid sspstrong uwtable
define internal i32 @dissect_routing6_mipv6(ptr noundef %0, ptr noundef %1, ptr noundef %2, ptr noundef %3) #0 {
  %5 = alloca ptr, align 8
  %6 = alloca ptr, align 8
  %7 = alloca ptr, align 8
  %8 = alloca ptr, align 8
  %9 = alloca ptr, align 8
  %10 = alloca ptr, align 8
  %11 = alloca i32, align 4
  %12 = alloca ptr, align 8
  store ptr %0, ptr %5, align 8
  store ptr %1, ptr %6, align 8
  store ptr %2, ptr %7, align 8
  store ptr %3, ptr %8, align 8
  call void @llvm.lifetime.start.p0(i64 8, ptr %9) #15
  %13 = load ptr, ptr %8, align 8
  store ptr %13, ptr %9, align 8
  call void @llvm.lifetime.start.p0(i64 8, ptr %10) #15
  call void @llvm.lifetime.start.p0(i64 4, ptr %11) #15
  store i32 0, ptr %11, align 4
  call void @llvm.lifetime.start.p0(i64 8, ptr %12) #15
  %14 = load ptr, ptr %7, align 8
  %15 = load i32, ptr @hf_ipv6_routing_mipv6_reserved, align 4
  %16 = load ptr, ptr %5, align 8
  %17 = load i32, ptr %11, align 4
  %18 = call ptr @proto_tree_add_item(ptr noundef %14, i32 noundef %15, ptr noundef %16, i32 noundef %17, i32 noundef 4, i32 noundef 0)
  %19 = load i32, ptr %11, align 4
  %20 = add i32 %19, 4
  store i32 %20, ptr %11, align 4
  %21 = load ptr, ptr %9, align 8
  %22 = getelementptr inbounds nuw %struct.ws_rthdr, ptr %21, i32 0, i32 0
  %23 = getelementptr inbounds nuw %struct.ws_ip6_rthdr, ptr %22, i32 0, i32 1
  %24 = load i8, ptr %23, align 1
  %25 = zext i8 %24 to i32
  %26 = icmp ne i32 %25, 2
  br i1 %26, label %27, label %33

27:                                               ; preds = %4
  %28 = load ptr, ptr %6, align 8
  %29 = load ptr, ptr %9, align 8
  %30 = getelementptr inbounds nuw %struct.ws_rthdr, ptr %29, i32 0, i32 1
  %31 = load ptr, ptr %30, align 8
  %32 = call ptr (ptr, ptr, ptr, ptr, ...) @expert_add_info_format(ptr noundef %28, ptr noundef %31, ptr noundef @ei_ipv6_routing_invalid_length, ptr noundef @.str.939)
  br label %33

33:                                               ; preds = %27, %4
  %34 = load ptr, ptr %9, align 8
  %35 = getelementptr inbounds nuw %struct.ws_rthdr, ptr %34, i32 0, i32 0
  %36 = getelementptr inbounds nuw %struct.ws_ip6_rthdr, ptr %35, i32 0, i32 3
  %37 = load i8, ptr %36, align 1
  %38 = zext i8 %37 to i32
  %39 = icmp ne i32 %38, 1
  br i1 %39, label %40, label %46

40:                                               ; preds = %33
  %41 = load ptr, ptr %6, align 8
  %42 = load ptr, ptr %9, align 8
  %43 = getelementptr inbounds nuw %struct.ws_rthdr, ptr %42, i32 0, i32 3
  %44 = load ptr, ptr %43, align 8
  %45 = call ptr (ptr, ptr, ptr, ptr, ...) @expert_add_info_format(ptr noundef %41, ptr noundef %44, ptr noundef @ei_ipv6_routing_invalid_segleft, ptr noundef @.str.940)
  br label %46

46:                                               ; preds = %40, %33
  %47 = load ptr, ptr %5, align 8
  %48 = load i32, ptr %11, align 4
  %49 = call ptr @tvb_get_ptr(ptr noundef %47, i32 noundef %48, i32 noundef 16)
  store ptr %49, ptr %12, align 8
  %50 = load ptr, ptr %7, align 8
  %51 = load ptr, ptr %6, align 8
  %52 = load i32, ptr @hf_ipv6_routing_mipv6_home_address, align 4
  %53 = load ptr, ptr %5, align 8
  %54 = load i32, ptr %11, align 4
  %55 = load ptr, ptr %12, align 8
  %56 = call ptr @_proto_tree_add_ipv6_vector_address(ptr noundef %50, ptr noundef %51, i32 noundef %52, ptr noundef %53, i32 noundef %54, i32 noundef 16, ptr noundef %55, i32 noundef 1)
  store ptr %56, ptr %10, align 8
  %57 = load ptr, ptr %12, align 8
  %58 = call zeroext i1 @in6_addr_is_multicast(ptr noundef %57)
  br i1 %58, label %59, label %63

59:                                               ; preds = %46
  %60 = load ptr, ptr %6, align 8
  %61 = load ptr, ptr %10, align 8
  %62 = call ptr @expert_add_info(ptr noundef %60, ptr noundef %61, ptr noundef @ei_ipv6_src_route_list_multicast_addr)
  br label %63

63:                                               ; preds = %59, %46
  %64 = load ptr, ptr %6, align 8
  %65 = getelementptr inbounds nuw %struct._packet_info, ptr %64, i32 0, i32 17
  %66 = getelementptr inbounds nuw %struct._address, ptr %65, i32 0, i32 0
  %67 = load i32, ptr %66, align 8
  %68 = icmp eq i32 %67, 3
  br i1 %68, label %69, label %83

69:                                               ; preds = %63
  %70 = load ptr, ptr %9, align 8
  %71 = getelementptr inbounds nuw %struct.ws_rthdr, ptr %70, i32 0, i32 0
  %72 = getelementptr inbounds nuw %struct.ws_ip6_rthdr, ptr %71, i32 0, i32 3
  %73 = load i8, ptr %72, align 1
  %74 = zext i8 %73 to i32
  %75 = icmp sgt i32 %74, 0
  br i1 %75, label %76, label %83

76:                                               ; preds = %69
  %77 = load ptr, ptr %6, align 8
  %78 = getelementptr inbounds nuw %struct._packet_info, ptr %77, i32 0, i32 51
  %79 = load ptr, ptr %78, align 8
  %80 = load ptr, ptr %6, align 8
  %81 = getelementptr inbounds nuw %struct._packet_info, ptr %80, i32 0, i32 17
  %82 = load ptr, ptr %12, align 8
  call void @alloc_address_wmem(ptr noundef %79, ptr noundef %81, i32 noundef 3, i32 noundef 16, ptr noundef %82)
  br label %83

83:                                               ; preds = %76, %69, %63
  %84 = load ptr, ptr %5, align 8
  %85 = call i32 @tvb_captured_length(ptr noundef %84)
  call void @llvm.lifetime.end.p0(i64 8, ptr %12) #15
  call void @llvm.lifetime.end.p0(i64 4, ptr %11) #15
  call void @llvm.lifetime.end.p0(i64 8, ptr %10) #15
  call void @llvm.lifetime.end.p0(i64 8, ptr %9) #15
  ret i32 %85
}