; Function Attrs: null_pointer_is_valid sspstrong uwtable
define internal i32 @dissect_routing6_mipv6(ptr noundef %0, ptr noundef %1, ptr noundef %2, ptr noundef readonly captures(none) %3) #0 {
  %5 = alloca %struct._address, align 8
  %6 = load i32, ptr @hf_ipv6_routing_mipv6_reserved, align 4
  %7 = tail call ptr @proto_tree_add_item(ptr noundef %2, i32 noundef %6, ptr noundef %0, i32 noundef 0, i32 noundef 4, i32 noundef 0)
  %8 = getelementptr inbounds nuw i8, ptr %3, i64 1
  %9 = load i8, ptr %8, align 1
  %.not = icmp eq i8 %9, 2
  br i1 %.not, label %14, label %10

10:                                               ; preds = %4
  %11 = getelementptr inbounds nuw i8, ptr %3, i64 8
  %12 = load ptr, ptr %11, align 8
  %13 = tail call ptr (ptr, ptr, ptr, ptr, ...) @expert_add_info_format(ptr noundef %1, ptr noundef %12, ptr noundef nonnull @ei_ipv6_routing_invalid_length, ptr noundef nonnull @.str.939)
  br label %14

14:                                               ; preds = %10, %4
  %15 = getelementptr inbounds nuw i8, ptr %3, i64 3
  %16 = load i8, ptr %15, align 1
  %.not26 = icmp eq i8 %16, 1
  br i1 %.not26, label %21, label %17

17:                                               ; preds = %14
  %18 = getelementptr inbounds nuw i8, ptr %3, i64 24
  %19 = load ptr, ptr %18, align 8
  %20 = tail call ptr (ptr, ptr, ptr, ptr, ...) @expert_add_info_format(ptr noundef %1, ptr noundef %19, ptr noundef nonnull @ei_ipv6_routing_invalid_segleft, ptr noundef nonnull @.str.940)
  br label %21

21:                                               ; preds = %17, %14
  %22 = tail call ptr @tvb_get_ptr(ptr noundef %0, i32 noundef 4, i32 noundef 16)
  %23 = load i32, ptr @hf_ipv6_routing_mipv6_home_address, align 4
  %24 = getelementptr i8, ptr %1, i64 408
  %.val = load ptr, ptr %24, align 8
  call void @llvm.lifetime.start.p0(i64 24, ptr nonnull %5) #16
  store i32 3, ptr %5, align 8
  %25 = getelementptr inbounds nuw i8, ptr %5, i64 4
  store i32 16, ptr %25, align 4
  %26 = getelementptr inbounds nuw i8, ptr %5, i64 8
  store ptr %22, ptr %26, align 8
  %27 = getelementptr inbounds nuw i8, ptr %5, i64 16
  store ptr null, ptr %27, align 8
  %28 = call ptr @address_with_resolution_to_str(ptr noundef %.val, ptr noundef nonnull %5)
  %29 = call ptr (ptr, i32, ptr, i32, i32, ptr, ptr, ...) @proto_tree_add_ipv6_format(ptr noundef %2, i32 noundef %23, ptr noundef %0, i32 noundef 4, i32 noundef 16, ptr noundef %22, ptr noundef nonnull @.str.938, i32 noundef 1, ptr noundef %28)
  call void @llvm.lifetime.end.p0(i64 24, ptr nonnull %5) #16
  %.val28 = load i8, ptr %22, align 1
  %30 = icmp eq i8 %.val28, -1
  br i1 %30, label %31, label %33

31:                                               ; preds = %21
  %32 = call ptr @expert_add_info(ptr noundef %1, ptr noundef %29, ptr noundef nonnull @ei_ipv6_src_route_list_multicast_addr)
  br label %33

33:                                               ; preds = %31, %21
  %34 = getelementptr inbounds nuw i8, ptr %1, i64 232
  %35 = load i32, ptr %34, align 8
  %36 = icmp eq i32 %35, 3
  br i1 %36, label %37, label %45

37:                                               ; preds = %33
  %38 = load i8, ptr %15, align 1
  %.not27 = icmp eq i8 %38, 0
  br i1 %.not27, label %45, label %39

39:                                               ; preds = %37
  %40 = load ptr, ptr %24, align 8
  call void @llvm.memset.p0.i64(ptr noundef nonnull align 8 dereferenceable(24) %34, i8 0, i64 24, i1 false)
  store i32 3, ptr %34, align 8
  %41 = call dereferenceable_or_null(16) ptr @wmem_memdup(ptr noundef %40, ptr noundef %22, i64 noundef 16) #18
  %42 = getelementptr inbounds nuw i8, ptr %1, i64 248
  store ptr %41, ptr %42, align 8
  %43 = getelementptr inbounds nuw i8, ptr %1, i64 240
  store ptr %41, ptr %43, align 8
  %44 = getelementptr inbounds nuw i8, ptr %1, i64 236
  store i32 16, ptr %44, align 4
  br label %45

45:                                               ; preds = %39, %37, %33
  %46 = call i32 @tvb_captured_length(ptr noundef %0)
  ret i32 %46
}